; Function Attrs: nounwind uwtable
define ptr @l_panic___at_Lean_Meta_Grind_Arith_Cutsat_resolveRatDiseq___spec__1(ptr noundef %0, i8 noundef zeroext %1, ptr noundef %2, ptr noundef %3, ptr noundef %4, ptr noundef %5, ptr noundef %6, ptr noundef %7, ptr noundef %8, ptr noundef %9, ptr noundef %10, ptr noundef %11) local_unnamed_addr #1 {
  %13 = load ptr, ptr @l_panic___at_Lean_Meta_Grind_Arith_Cutsat_resolveRatDiseq___spec__1___closed__7, align 8, !tbaa !11
  %14 = tail call ptr @lean_panic_fn(ptr noundef %13, ptr noundef %0) #6
  %15 = zext i8 %1 to i64
  %16 = shl nuw nsw i64 %15, 1
  %17 = or disjoint i64 %16, 1
  %18 = inttoptr i64 %17 to ptr
  %19 = tail call ptr @lean_apply_11(ptr noundef %14, ptr noundef nonnull %18, ptr noundef %2, ptr noundef %3, ptr noundef %4, ptr noundef %5, ptr noundef %6, ptr noundef %7, ptr noundef %8, ptr noundef %9, ptr noundef %10, ptr noundef %11) #6
  ret ptr %19
}